; Function Attrs: mustprogress uwtable
define void @_ZN3gmx12ForceBuffers6resizeEi(ptr noundef nonnull align 8 dereferenceable(137) %0, i32 noundef %1) local_unnamed_addr #0 align 2 {
  %3 = sext i32 %1 to i64
  tail call void @_ZN3gmx12PaddedVectorINS_11BasicVectorIfEENS_9AllocatorIS2_NS_20HostAllocationPolicyEEEE17resizeWithPaddingEl(ptr noundef nonnull align 8 dereferenceable(40) %0, i64 noundef %3)
  %4 = getelementptr inbounds i8, ptr %0, i64 136
  %5 = load i8, ptr %4, align 8
  %6 = trunc i8 %5 to i1
  br i1 %6, label %7, label %_ZN3gmx16ForceBuffersViewaSEOS0_.exit

7:                                                ; preds = %2
  %8 = getelementptr inbounds i8, ptr %0, i64 40
  tail call void @_ZN3gmx12PaddedVectorINS_11BasicVectorIfEENS_9AllocatorIS2_NS_20HostAllocationPolicyEEEE17resizeWithPaddingEl(ptr noundef nonnull align 8 dereferenceable(40) %8, i64 noundef %3)
  %.pre = load i8, ptr %4, align 8
  br label %_ZN3gmx16ForceBuffersViewaSEOS0_.exit

_ZN3gmx16ForceBuffersViewaSEOS0_.exit:            ; preds = %7, %2
  %9 = phi i8 [ %.pre, %7 ], [ %5, %2 ]
  %10 = getelementptr inbounds i8, ptr %0, i64 80
  %11 = getelementptr inbounds i8, ptr %0, i64 48
  %12 = load ptr, ptr %11, align 8, !noalias !26
  %13 = getelementptr inbounds i8, ptr %0, i64 56
  %14 = load ptr, ptr %13, align 8, !noalias !26
  %15 = ptrtoint ptr %14 to i64
  %16 = ptrtoint ptr %12 to i64
  %17 = sub i64 %15, %16
  %18 = getelementptr inbounds i8, ptr %12, i64 %17
  %19 = getelementptr inbounds i8, ptr %0, i64 72
  %20 = load ptr, ptr %19, align 8, !noalias !26
  %21 = ptrtoint ptr %20 to i64
  %22 = sub i64 %21, %16
  %23 = getelementptr inbounds i8, ptr %12, i64 %22
  %24 = getelementptr inbounds i8, ptr %0, i64 8
  %25 = load ptr, ptr %24, align 8, !noalias !29
  %26 = getelementptr inbounds i8, ptr %0, i64 16
  %27 = load ptr, ptr %26, align 8, !noalias !29
  %28 = ptrtoint ptr %27 to i64
  %29 = ptrtoint ptr %25 to i64
  %30 = sub i64 %28, %29
  %31 = getelementptr inbounds i8, ptr %25, i64 %30
  %32 = getelementptr inbounds i8, ptr %0, i64 32
  %33 = load ptr, ptr %32, align 8, !noalias !29
  %34 = ptrtoint ptr %33 to i64
  %35 = sub i64 %34, %29
  %36 = getelementptr inbounds i8, ptr %25, i64 %35
  store ptr %25, ptr %10, align 8
  %37 = getelementptr inbounds i8, ptr %0, i64 88
  store ptr %36, ptr %37, align 8
  %38 = getelementptr inbounds i8, ptr %0, i64 96
  store ptr %31, ptr %38, align 8
  %39 = getelementptr inbounds i8, ptr %0, i64 104
  store ptr %12, ptr %39, align 8
  %40 = getelementptr inbounds i8, ptr %0, i64 112
  store ptr %23, ptr %40, align 8
  %41 = getelementptr inbounds i8, ptr %0, i64 120
  store ptr %18, ptr %41, align 8
  %42 = and i8 %9, 1
  %43 = getelementptr inbounds i8, ptr %0, i64 128
  store i8 %42, ptr %43, align 8
  ret void
}